target datalayout = "e-m:e-p270:32:32-p271:32:32-p272:64:64-i64:64-i128:128-f80:128-n8:16:32:64-S128"
target triple = "x86_64-pc-linux-gnu"

; Function Attrs: nounwind uwtable
define i32 @dup3(i32 noundef %0, i32 noundef %1, i32 noundef %2) #0 {
  %4 = alloca i32, align 4
  %5 = alloca i32, align 4
  %6 = alloca i32, align 4
  %7 = alloca i32, align 4
  store i32 %0, ptr %4, align 4
  store i32 %1, ptr %5, align 4
  store i32 %2, ptr %6, align 4
  %8 = call ptr @nxsched_self()
  %9 = load i32, ptr %4, align 4
  %10 = load i32, ptr %5, align 4
  %11 = load i32, ptr %6, align 4
  %12 = call i32 @nx_dup3_from_tcb(ptr noundef %8, i32 noundef %9, i32 noundef %10, i32 noundef %11)
  store i32 %12, ptr %7, align 4
  %13 = load i32, ptr %7, align 4
  %14 = icmp slt i32 %13, 0
  br i1 %14, label %15, label %21

15:                                               ; preds = %3
  br label %16

16:                                               ; preds = %15
  %17 = load i32, ptr %7, align 4
  %18 = sub nsw i32 0, %17
  %19 = call ptr @__errno()
  store i32 %18, ptr %19, align 4
  br label %20

20:                                               ; preds = %16
  store i32 -1, ptr %7, align 4
  br label %21

21:                                               ; preds = %20, %3
  %22 = load i32, ptr %7, align 4
  ret i32 %22
}