; Function Attrs: nounwind uwtable
define range(i32 -1, -2147483648) i32 @dup3(i32 noundef %0, i32 noundef %1, i32 noundef %2) local_unnamed_addr #1 {
  %4 = tail call ptr @nxsched_self() #10
  %5 = tail call fastcc i32 @nx_dup3_from_tcb(ptr noundef %4, i32 noundef %0, i32 noundef %1, i32 noundef %2)
  %6 = icmp slt i32 %5, 0
  br i1 %6, label %7, label %10

7:                                                ; preds = %3
  %8 = sub nsw i32 0, %5
  %9 = tail call ptr @__errno() #10
  store i32 %8, ptr %9, align 4
  br label %10

10:                                               ; preds = %7, %3
  %.0 = phi i32 [ -1, %7 ], [ %5, %3 ]
  ret i32 %.0
}